; Function Attrs: mustprogress nofree norecurse nosync nounwind willreturn memory(read, inaccessiblemem: none) uwtable
define dso_local noundef zeroext i1 @_ZNK5clang22OMPExecutableDirective21isStandaloneDirectiveEv(ptr nocapture noundef nonnull readonly align 8 dereferenceable(32) %0) local_unnamed_addr #5 align 2 {
  %2 = load i8, ptr %0, align 8
  switch i8 %2, label %3 [
    i8 -98, label %.critedge
    i8 -99, label %.critedge
    i8 -103, label %.critedge
  ]

3:                                                ; preds = %1
  %4 = getelementptr inbounds nuw i8, ptr %0, i64 24
  %5 = load ptr, ptr %4, align 8
  %.not.i = icmp eq ptr %5, null
  br i1 %.not.i, label %.critedge, label %6

6:                                                ; preds = %3
  %7 = getelementptr inbounds nuw i8, ptr %5, i64 8
  %8 = load i8, ptr %7, align 8
  %9 = trunc i8 %8 to i1
  %10 = xor i1 %9, true
  br label %.critedge

.critedge:                                        ; preds = %6, %3, %1, %1, %1
  %.0 = phi i1 [ true, %1 ], [ true, %1 ], [ true, %1 ], [ true, %3 ], [ %10, %6 ]
  ret i1 %.0
}